; ModuleID = '9/1331.c'
source_filename = "9/1331.c"
target datalayout = "e-m:e-p270:32:32-p271:32:32-p272:64:64-i64:64-f80:128-n8:16:32:64-S128"
target triple = "x86_64-pc-linux-gnu"

%struct.anon = type { [10 x i8], i32 }

@.str = private unnamed_addr constant [3 x i8] c"%d\00", align 1
@.str.1 = private unnamed_addr constant [6 x i8] c"%s %d\00", align 1
@patient = common dso_local global [100 x %struct.anon] zeroinitializer, align 16
@old = common dso_local global [100 x %struct.anon] zeroinitializer, align 16
@qita = common dso_local global [100 x %struct.anon] zeroinitializer, align 16
@temp = common dso_local global %struct.anon zeroinitializer, align 4
@.str.2 = private unnamed_addr constant [4 x i8] c"%s\0A\00", align 1

; Function Attrs: noinline nounwind uwtable
define dso_local i32 @main() #0 {
  %1 = alloca i32, align 4
  %2 = alloca i32, align 4
  %3 = alloca i32, align 4
  %4 = alloca i32, align 4
  %5 = alloca i32, align 4
  %6 = alloca i32, align 4
  %7 = alloca i32, align 4
  store i32 0, i32* %1, align 4
  %8 = call i32 (i8*, ...) @__isoc99_scanf(i8* getelementptr inbounds ([3 x i8], [3 x i8]* @.str, i64 0, i64 0), i32* %2)
  store i32 0, i32* %3, align 4
  br label %9

9:                                                ; preds = %24, %0
  %10 = load i32, i32* %3, align 4
  %11 = load i32, i32* %2, align 4
  %12 = icmp slt i32 %10, %11
  br i1 %12, label %13, label %27

13:                                               ; preds = %9
  %14 = load i32, i32* %3, align 4
  %15 = sext i32 %14 to i64
  %16 = getelementptr inbounds [100 x %struct.anon], [100 x %struct.anon]* @patient, i64 0, i64 %15
  %17 = getelementptr inbounds %struct.anon, %struct.anon* %16, i32 0, i32 0
  %18 = getelementptr inbounds [10 x i8], [10 x i8]* %17, i64 0, i64 0
  %19 = load i32, i32* %3, align 4
  %20 = sext i32 %19 to i64
  %21 = getelementptr inbounds [100 x %struct.anon], [100 x %struct.anon]* @patient, i64 0, i64 %20
  %22 = getelementptr inbounds %struct.anon, %struct.anon* %21, i32 0, i32 1
  %23 = call i32 (i8*, ...) @__isoc99_scanf(i8* getelementptr inbounds ([6 x i8], [6 x i8]* @.str.1, i64 0, i64 0), i8* %18, i32* %22)
  br label %24

24:                                               ; preds = %13
  %25 = load i32, i32* %3, align 4
  %26 = add nsw i32 %25, 1
  store i32 %26, i32* %3, align 4
  br label %9

27:                                               ; preds = %9
  store i32 0, i32* %6, align 4
  store i32 0, i32* %3, align 4
  br label %28

28:                                               ; preds = %43, %27
  %29 = load i32, i32* %3, align 4
  %30 = load i32, i32* %2, align 4
  %31 = icmp slt i32 %29, %30
  br i1 %31, label %32, label %46

32:                                               ; preds = %28
  %33 = load i32, i32* %3, align 4
  %34 = sext i32 %33 to i64
  %35 = getelementptr inbounds [100 x %struct.anon], [100 x %struct.anon]* @patient, i64 0, i64 %34
  %36 = getelementptr inbounds %struct.anon, %struct.anon* %35, i32 0, i32 1
  %37 = load i32, i32* %36, align 4
  %38 = icmp sge i32 %37, 60
  br i1 %38, label %39, label %42

39:                                               ; preds = %32
  %40 = load i32, i32* %6, align 4
  %41 = add nsw i32 %40, 1
  store i32 %41, i32* %6, align 4
  br label %42

42:                                               ; preds = %39, %32
  br label %43

43:                                               ; preds = %42
  %44 = load i32, i32* %3, align 4
  %45 = add nsw i32 %44, 1
  store i32 %45, i32* %3, align 4
  br label %28

46:                                               ; preds = %28
  store i32 0, i32* %4, align 4
  store i32 0, i32* %3, align 4
  br label %47

47:                                               ; preds = %70, %46
  %48 = load i32, i32* %3, align 4
  %49 = load i32, i32* %2, align 4
  %50 = icmp slt i32 %48, %49
  br i1 %50, label %51, label %73

51:                                               ; preds = %47
  %52 = load i32, i32* %3, align 4
  %53 = sext i32 %52 to i64
  %54 = getelementptr inbounds [100 x %struct.anon], [100 x %struct.anon]* @patient, i64 0, i64 %53
  %55 = getelementptr inbounds %struct.anon, %struct.anon* %54, i32 0, i32 1
  %56 = load i32, i32* %55, align 4
  %57 = icmp sge i32 %56, 60
  br i1 %57, label %58, label %69

58:                                               ; preds = %51
  %59 = load i32, i32* %4, align 4
  %60 = sext i32 %59 to i64
  %61 = getelementptr inbounds [100 x %struct.anon], [100 x %struct.anon]* @old, i64 0, i64 %60
  %62 = load i32, i32* %3, align 4
  %63 = sext i32 %62 to i64
  %64 = getelementptr inbounds [100 x %struct.anon], [100 x %struct.anon]* @patient, i64 0, i64 %63
  %65 = bitcast %struct.anon* %61 to i8*
  %66 = bitcast %struct.anon* %64 to i8*
  call void @llvm.memcpy.p0i8.p0i8.i64(i8* align 16 %65, i8* align 16 %66, i64 16, i1 false)
  %67 = load i32, i32* %4, align 4
  %68 = add nsw i32 %67, 1
  store i32 %68, i32* %4, align 4
  br label %69

69:                                               ; preds = %58, %51
  br label %70

70:                                               ; preds = %69
  %71 = load i32, i32* %3, align 4
  %72 = add nsw i32 %71, 1
  store i32 %72, i32* %3, align 4
  br label %47

73:                                               ; preds = %47
  store i32 0, i32* %4, align 4
  store i32 0, i32* %3, align 4
  br label %74

74:                                               ; preds = %97, %73
  %75 = load i32, i32* %3, align 4
  %76 = load i32, i32* %2, align 4
  %77 = icmp slt i32 %75, %76
  br i1 %77, label %78, label %100

78:                                               ; preds = %74
  %79 = load i32, i32* %3, align 4
  %80 = sext i32 %79 to i64
  %81 = getelementptr inbounds [100 x %struct.anon], [100 x %struct.anon]* @patient, i64 0, i64 %80
  %82 = getelementptr inbounds %struct.anon, %struct.anon* %81, i32 0, i32 1
  %83 = load i32, i32* %82, align 4
  %84 = icmp slt i32 %83, 60
  br i1 %84, label %85, label %96

85:                                               ; preds = %78
  %86 = load i32, i32* %4, align 4
  %87 = sext i32 %86 to i64
  %88 = getelementptr inbounds [100 x %struct.anon], [100 x %struct.anon]* @qita, i64 0, i64 %87
  %89 = load i32, i32* %3, align 4
  %90 = sext i32 %89 to i64
  %91 = getelementptr inbounds [100 x %struct.anon], [100 x %struct.anon]* @patient, i64 0, i64 %90
  %92 = bitcast %struct.anon* %88 to i8*
  %93 = bitcast %struct.anon* %91 to i8*
  call void @llvm.memcpy.p0i8.p0i8.i64(i8* align 16 %92, i8* align 16 %93, i64 16, i1 false)
  %94 = load i32, i32* %4, align 4
  %95 = add nsw i32 %94, 1
  store i32 %95, i32* %4, align 4
  br label %96

96:                                               ; preds = %85, %78
  br label %97

97:                                               ; preds = %96
  %98 = load i32, i32* %3, align 4
  %99 = add nsw i32 %98, 1
  store i32 %99, i32* %3, align 4
  br label %74

100:                                              ; preds = %74
  store i32 1, i32* %7, align 4
  br label %101

101:                                              ; preds = %149, %100
  %102 = load i32, i32* %7, align 4
  %103 = load i32, i32* %6, align 4
  %104 = icmp slt i32 %102, %103
  br i1 %104, label %105, label %152

105:                                              ; preds = %101
  store i32 0, i32* %4, align 4
  br label %106

106:                                              ; preds = %145, %105
  %107 = load i32, i32* %4, align 4
  %108 = load i32, i32* %6, align 4
  %109 = load i32, i32* %7, align 4
  %110 = sub nsw i32 %108, %109
  %111 = icmp slt i32 %107, %110
  br i1 %111, label %112, label %148

112:                                              ; preds = %106
  %113 = load i32, i32* %4, align 4
  %114 = add nsw i32 %113, 1
  %115 = sext i32 %114 to i64
  %116 = getelementptr inbounds [100 x %struct.anon], [100 x %struct.anon]* @old, i64 0, i64 %115
  %117 = getelementptr inbounds %struct.anon, %struct.anon* %116, i32 0, i32 1
  %118 = load i32, i32* %117, align 4
  %119 = load i32, i32* %4, align 4
  %120 = sext i32 %119 to i64
  %121 = getelementptr inbounds [100 x %struct.anon], [100 x %struct.anon]* @old, i64 0, i64 %120
  %122 = getelementptr inbounds %struct.anon, %struct.anon* %121, i32 0, i32 1
  %123 = load i32, i32* %122, align 4
  %124 = icmp sgt i32 %118, %123
  br i1 %124, label %125, label %144

125:                                              ; preds = %112
  %126 = load i32, i32* %4, align 4
  %127 = add nsw i32 %126, 1
  %128 = sext i32 %127 to i64
  %129 = getelementptr inbounds [100 x %struct.anon], [100 x %struct.anon]* @old, i64 0, i64 %128
  %130 = bitcast %struct.anon* %129 to i8*
  call void @llvm.memcpy.p0i8.p0i8.i64(i8* align 4 getelementptr inbounds (%struct.anon, %struct.anon* @temp, i32 0, i32 0, i32 0), i8* align 16 %130, i64 16, i1 false)
  %131 = load i32, i32* %4, align 4
  %132 = add nsw i32 %131, 1
  %133 = sext i32 %132 to i64
  %134 = getelementptr inbounds [100 x %struct.anon], [100 x %struct.anon]* @old, i64 0, i64 %133
  %135 = load i32, i32* %4, align 4
  %136 = sext i32 %135 to i64
  %137 = getelementptr inbounds [100 x %struct.anon], [100 x %struct.anon]* @old, i64 0, i64 %136
  %138 = bitcast %struct.anon* %134 to i8*
  %139 = bitcast %struct.anon* %137 to i8*
  call void @llvm.memcpy.p0i8.p0i8.i64(i8* align 16 %138, i8* align 16 %139, i64 16, i1 false)
  %140 = load i32, i32* %4, align 4
  %141 = sext i32 %140 to i64
  %142 = getelementptr inbounds [100 x %struct.anon], [100 x %struct.anon]* @old, i64 0, i64 %141
  %143 = bitcast %struct.anon* %142 to i8*
  call void @llvm.memcpy.p0i8.p0i8.i64(i8* align 16 %143, i8* align 4 getelementptr inbounds (%struct.anon, %struct.anon* @temp, i32 0, i32 0, i32 0), i64 16, i1 false)
  br label %144

144:                                              ; preds = %125, %112
  br label %145

145:                                              ; preds = %144
  %146 = load i32, i32* %4, align 4
  %147 = add nsw i32 %146, 1
  store i32 %147, i32* %4, align 4
  br label %106

148:                                              ; preds = %106
  br label %149

149:                                              ; preds = %148
  %150 = load i32, i32* %7, align 4
  %151 = add nsw i32 %150, 1
  store i32 %151, i32* %7, align 4
  br label %101

152:                                              ; preds = %101
  store i32 0, i32* %4, align 4
  br label %153

153:                                              ; preds = %164, %152
  %154 = load i32, i32* %4, align 4
  %155 = load i32, i32* %6, align 4
  %156 = icmp slt i32 %154, %155
  br i1 %156, label %157, label %167

157:                                              ; preds = %153
  %158 = load i32, i32* %4, align 4
  %159 = sext i32 %158 to i64
  %160 = getelementptr inbounds [100 x %struct.anon], [100 x %struct.anon]* @old, i64 0, i64 %159
  %161 = getelementptr inbounds %struct.anon, %struct.anon* %160, i32 0, i32 0
  %162 = getelementptr inbounds [10 x i8], [10 x i8]* %161, i64 0, i64 0
  %163 = call i32 (i8*, ...) @printf(i8* getelementptr inbounds ([4 x i8], [4 x i8]* @.str.2, i64 0, i64 0), i8* %162)
  br label %164

164:                                              ; preds = %157
  %165 = load i32, i32* %4, align 4
  %166 = add nsw i32 %165, 1
  store i32 %166, i32* %4, align 4
  br label %153

167:                                              ; preds = %153
  store i32 0, i32* %4, align 4
  br label %168

168:                                              ; preds = %181, %167
  %169 = load i32, i32* %4, align 4
  %170 = load i32, i32* %2, align 4
  %171 = load i32, i32* %6, align 4
  %172 = sub nsw i32 %170, %171
  %173 = icmp slt i32 %169, %172
  br i1 %173, label %174, label %184

174:                                              ; preds = %168
  %175 = load i32, i32* %4, align 4
  %176 = sext i32 %175 to i64
  %177 = getelementptr inbounds [100 x %struct.anon], [100 x %struct.anon]* @qita, i64 0, i64 %176
  %178 = getelementptr inbounds %struct.anon, %struct.anon* %177, i32 0, i32 0
  %179 = getelementptr inbounds [10 x i8], [10 x i8]* %178, i64 0, i64 0
  %180 = call i32 (i8*, ...) @printf(i8* getelementptr inbounds ([4 x i8], [4 x i8]* @.str.2, i64 0, i64 0), i8* %179)
  br label %181

181:                                              ; preds = %174
  %182 = load i32, i32* %4, align 4
  %183 = add nsw i32 %182, 1
  store i32 %183, i32* %4, align 4
  br label %168

184:                                              ; preds = %168
  ret i32 0
}

declare dso_local i32 @__isoc99_scanf(i8*, ...) #1

; Function Attrs: argmemonly nounwind willreturn
declare void @llvm.memcpy.p0i8.p0i8.i64(i8* noalias nocapture writeonly, i8* noalias nocapture readonly, i64, i1 immarg) #2

declare dso_local i32 @printf(i8*, ...) #1


!llvm.module.flags = !{!0}
!llvm.ident = !{!1}

!0 = !{i32 1, !"wchar_size", i32 4}
!1 = !{!"clang version 10.0.0-4ubuntu1 "}
